; Function Attrs: nounwind uwtable
define internal void @snmp_users_auth_model_set_cb(ptr noundef writeonly captures(none) initializes((112, 116)) %0, ptr noundef %1, i32 noundef %2, ptr noundef readonly captures(none) %3, ptr readnone captures(none) %4) #0 {
  %6 = zext i32 %2 to i64
  %7 = tail call noalias ptr @g_strndup(ptr noundef %1, i64 noundef %6) #11
  %8 = getelementptr inbounds nuw i8, ptr %0, i64 112
  store i32 0, ptr %8, align 8
  %9 = getelementptr inbounds nuw i8, ptr %3, i64 8
  %10 = load ptr, ptr %9, align 8
  %.not15 = icmp eq ptr %10, null
  br i1 %.not15, label %._crit_edge, label %.lr.ph.preheader

.lr.ph.preheader:                                 ; preds = %5
  %11 = tail call i32 @g_str_equal(ptr noundef nonnull %10, ptr noundef %7) #11
  %.not1320 = icmp eq i32 %11, 0
  br i1 %.not1320, label %.lr.ph22, label %.lr.ph._crit_edge

.lr.ph22:                                         ; preds = %.lr.ph.preheader, %.lr.ph
  %.01621 = phi i32 [ %12, %.lr.ph ], [ 0, %.lr.ph.preheader ]
  %12 = add i32 %.01621, 1
  %13 = zext i32 %12 to i64
  %14 = getelementptr %struct._value_string, ptr %3, i64 %13
  %15 = getelementptr inbounds nuw i8, ptr %14, i64 8
  %16 = load ptr, ptr %15, align 8
  %.not = icmp eq ptr %16, null
  br i1 %.not, label %._crit_edge, label %.lr.ph, !llvm.loop !4

.lr.ph:                                           ; preds = %.lr.ph22
  %17 = tail call i32 @g_str_equal(ptr noundef nonnull %16, ptr noundef %7) #11
  %.not13 = icmp eq i32 %17, 0
  br i1 %.not13, label %.lr.ph22, label %.lr.ph._crit_edge, !llvm.loop !4

.lr.ph._crit_edge:                                ; preds = %.lr.ph, %.lr.ph.preheader
  %.lcssa = phi ptr [ %3, %.lr.ph.preheader ], [ %14, %.lr.ph ]
  %18 = load i32, ptr %.lcssa, align 8
  store i32 %18, ptr %8, align 8
  br label %._crit_edge

._crit_edge:                                      ; preds = %.lr.ph22, %5, %.lr.ph._crit_edge
  tail call void @g_free(ptr noundef %7) #11
  ret void
}